; Function Attrs: mustprogress nofree norecurse nosync nounwind willreturn memory(argmem: read) uwtable
define hidden noundef zeroext i1 @_ZNK5ceres21GradientProblemSolver7Summary16IsSolutionUsableEv(ptr nocapture noundef nonnull readonly align 8 dereferenceable(148) %0) local_unnamed_addr #9 align 2 {
_ZN5ceres8internal16IsSolutionUsableINS_21GradientProblemSolver7SummaryEEEbRKT_.exit:
  %1 = load i32, ptr %0, align 8
  %2 = icmp ult i32 %1, 4
  %switch.cast = trunc i32 %1 to i4
  %switch.downshift = lshr i4 -5, %switch.cast
  %3 = and i4 %switch.downshift, 1
  %switch.masked = icmp ne i4 %3, 0
  %4 = select i1 %2, i1 %switch.masked, i1 false
  ret i1 %4
}